target datalayout = "e-m:e-p270:32:32-p271:32:32-p272:64:64-i64:64-i128:128-f80:128-n8:16:32:64-S128"
target triple = "x86_64-pc-linux-gnu"

%struct.tm = type { i32, i32, i32, i32, i32, i32, i32, i32, i32, i64, ptr }
%struct.interval = type { i64, i64 }

@day_tab = external constant [2 x [13 x i32]], align 16

; Function Attrs: nounwind uwtable
define internal i64 @dt2local(i64 noundef %0, i32 noundef %1) #0 {
  %3 = alloca i64, align 8
  %4 = alloca i32, align 4
  store i64 %0, ptr %3, align 8
  store i32 %1, ptr %4, align 4
  %5 = load i32, ptr %4, align 4
  %6 = sext i32 %5 to i64
  %7 = mul i64 %6, 1000000
  %8 = load i64, ptr %3, align 8
  %9 = sub i64 %8, %7
  store i64 %9, ptr %3, align 8
  %10 = load i64, ptr %3, align 8
  ret i64 %10
}

; Function Attrs: inlinehint nounwind uwtable
define internal zeroext i1 @pg_add_s64_overflow(i64 noundef %0, i64 noundef %1, ptr noundef %2) #3 {
  %4 = alloca i64, align 8
  %5 = alloca i64, align 8
  %6 = alloca ptr, align 8
  store i64 %0, ptr %4, align 8
  store i64 %1, ptr %5, align 8
  store ptr %2, ptr %6, align 8
  %7 = load i64, ptr %4, align 8
  %8 = load i64, ptr %5, align 8
  %9 = load ptr, ptr %6, align 8
  %10 = call { i64, i1 } @llvm.sadd.with.overflow.i64(i64 %7, i64 %8)
  %11 = extractvalue { i64, i1 } %10, 1
  %12 = extractvalue { i64, i1 } %10, 0
  store i64 %12, ptr %9, align 8
  ret i1 %11
}

; Function Attrs: inlinehint nounwind uwtable
define internal zeroext i1 @pg_mul_s64_overflow(i64 noundef %0, i64 noundef %1, ptr noundef %2) #3 {
  %4 = alloca i64, align 8
  %5 = alloca i64, align 8
  %6 = alloca ptr, align 8
  store i64 %0, ptr %4, align 8
  store i64 %1, ptr %5, align 8
  store ptr %2, ptr %6, align 8
  %7 = load i64, ptr %4, align 8
  %8 = load i64, ptr %5, align 8
  %9 = load ptr, ptr %6, align 8
  %10 = call { i64, i1 } @llvm.smul.with.overflow.i64(i64 %7, i64 %8)
  %11 = extractvalue { i64, i1 } %10, 1
  %12 = extractvalue { i64, i1 } %10, 0
  store i64 %12, ptr %9, align 8
  ret i1 %11
}

; Function Attrs: nounwind uwtable
define internal i64 @time2t(i32 noundef %0, i32 noundef %1, i32 noundef %2, i32 noundef %3) #0 {
  %5 = alloca i32, align 4
  %6 = alloca i32, align 4
  %7 = alloca i32, align 4
  %8 = alloca i32, align 4
  store i32 %0, ptr %5, align 4
  store i32 %1, ptr %6, align 4
  store i32 %2, ptr %7, align 4
  store i32 %3, ptr %8, align 4
  %9 = load i32, ptr %5, align 4
  %10 = mul i32 %9, 60
  %11 = load i32, ptr %6, align 4
  %12 = add i32 %10, %11
  %13 = mul i32 %12, 60
  %14 = load i32, ptr %7, align 4
  %15 = add i32 %13, %14
  %16 = sext i32 %15 to i64
  %17 = mul i64 %16, 1000000
  %18 = load i32, ptr %8, align 4
  %19 = sext i32 %18 to i64
  %20 = add i64 %17, %19
  ret i64 %20
}

; Function Attrs: nounwind uwtable
define i32 @tm2timestamp(ptr noundef %0, i32 noundef %1, ptr noundef %2, ptr noundef %3) #0 {
  %5 = alloca i32, align 4
  %6 = alloca ptr, align 8
  %7 = alloca i32, align 4
  %8 = alloca ptr, align 8
  %9 = alloca ptr, align 8
  %10 = alloca i32, align 4
  %11 = alloca i64, align 8
  %12 = alloca i32, align 4
  store ptr %0, ptr %6, align 8
  store i32 %1, ptr %7, align 4
  store ptr %2, ptr %8, align 8
  store ptr %3, ptr %9, align 8
  call void @llvm.lifetime.start.p0(i64 4, ptr %10) #11
  call void @llvm.lifetime.start.p0(i64 8, ptr %11) #11
  %13 = load ptr, ptr %6, align 8
  %14 = getelementptr inbounds nuw %struct.tm, ptr %13, i32 0, i32 5
  %15 = load i32, ptr %14, align 4
  %16 = icmp sgt i32 %15, -4713
  br i1 %16, label %27, label %17

17:                                               ; preds = %4
  %18 = load ptr, ptr %6, align 8
  %19 = getelementptr inbounds nuw %struct.tm, ptr %18, i32 0, i32 5
  %20 = load i32, ptr %19, align 4
  %21 = icmp eq i32 %20, -4713
  br i1 %21, label %22, label %42

22:                                               ; preds = %17
  %23 = load ptr, ptr %6, align 8
  %24 = getelementptr inbounds nuw %struct.tm, ptr %23, i32 0, i32 4
  %25 = load i32, ptr %24, align 8
  %26 = icmp sge i32 %25, 11
  br i1 %26, label %27, label %42

27:                                               ; preds = %22, %4
  %28 = load ptr, ptr %6, align 8
  %29 = getelementptr inbounds nuw %struct.tm, ptr %28, i32 0, i32 5
  %30 = load i32, ptr %29, align 4
  %31 = icmp slt i32 %30, 5874898
  br i1 %31, label %43, label %32

32:                                               ; preds = %27
  %33 = load ptr, ptr %6, align 8
  %34 = getelementptr inbounds nuw %struct.tm, ptr %33, i32 0, i32 5
  %35 = load i32, ptr %34, align 4
  %36 = icmp eq i32 %35, 5874898
  br i1 %36, label %37, label %42

37:                                               ; preds = %32
  %38 = load ptr, ptr %6, align 8
  %39 = getelementptr inbounds nuw %struct.tm, ptr %38, i32 0, i32 4
  %40 = load i32, ptr %39, align 8
  %41 = icmp slt i32 %40, 6
  br i1 %41, label %43, label %42

42:                                               ; preds = %37, %32, %22, %17
  store i32 -1, ptr %5, align 4
  store i32 1, ptr %12, align 4
  br label %107

43:                                               ; preds = %37, %27
  %44 = load ptr, ptr %6, align 8
  %45 = getelementptr inbounds nuw %struct.tm, ptr %44, i32 0, i32 5
  %46 = load i32, ptr %45, align 4
  %47 = load ptr, ptr %6, align 8
  %48 = getelementptr inbounds nuw %struct.tm, ptr %47, i32 0, i32 4
  %49 = load i32, ptr %48, align 8
  %50 = load ptr, ptr %6, align 8
  %51 = getelementptr inbounds nuw %struct.tm, ptr %50, i32 0, i32 3
  %52 = load i32, ptr %51, align 4
  %53 = call i32 @date2j(i32 noundef %46, i32 noundef %49, i32 noundef %52)
  %54 = call i32 @date2j(i32 noundef 2000, i32 noundef 1, i32 noundef 1)
  %55 = sub i32 %53, %54
  store i32 %55, ptr %10, align 4
  %56 = load ptr, ptr %6, align 8
  %57 = getelementptr inbounds nuw %struct.tm, ptr %56, i32 0, i32 2
  %58 = load i32, ptr %57, align 8
  %59 = load ptr, ptr %6, align 8
  %60 = getelementptr inbounds nuw %struct.tm, ptr %59, i32 0, i32 1
  %61 = load i32, ptr %60, align 4
  %62 = load ptr, ptr %6, align 8
  %63 = getelementptr inbounds nuw %struct.tm, ptr %62, i32 0, i32 0
  %64 = load i32, ptr %63, align 8
  %65 = load i32, ptr %7, align 4
  %66 = call i64 @time2t(i32 noundef %58, i32 noundef %61, i32 noundef %64, i32 noundef %65)
  store i64 %66, ptr %11, align 8
  %67 = load i32, ptr %10, align 4
  %68 = sext i32 %67 to i64
  %69 = load ptr, ptr %9, align 8
  %70 = call zeroext i1 @pg_mul_s64_overflow(i64 noundef %68, i64 noundef 86400000000, ptr noundef %69)
  br i1 %70, label %77, label %71

71:                                               ; preds = %43
  %72 = load ptr, ptr %9, align 8
  %73 = load i64, ptr %72, align 8
  %74 = load i64, ptr %11, align 8
  %75 = load ptr, ptr %9, align 8
  %76 = call zeroext i1 @pg_add_s64_overflow(i64 noundef %73, i64 noundef %74, ptr noundef %75)
  br label %77

77:                                               ; preds = %71, %43
  %78 = phi i1 [ true, %43 ], [ %76, %71 ]
  %79 = zext i1 %78 to i32
  %80 = icmp ne i32 %79, 0
  %81 = zext i1 %80 to i32
  %82 = sext i32 %81 to i64
  %83 = call i64 @llvm.expect.i64(i64 %82, i64 0)
  %84 = icmp ne i64 %83, 0
  br i1 %84, label %85, label %86

85:                                               ; preds = %77
  store i32 -1, ptr %5, align 4
  store i32 1, ptr %12, align 4
  br label %107

86:                                               ; preds = %77
  %87 = load ptr, ptr %8, align 8
  %88 = icmp ne ptr %87, null
  br i1 %88, label %89, label %97

89:                                               ; preds = %86
  %90 = load ptr, ptr %9, align 8
  %91 = load i64, ptr %90, align 8
  %92 = load ptr, ptr %8, align 8
  %93 = load i32, ptr %92, align 4
  %94 = sub i32 0, %93
  %95 = call i64 @dt2local(i64 noundef %91, i32 noundef %94)
  %96 = load ptr, ptr %9, align 8
  store i64 %95, ptr %96, align 8
  br label %97

97:                                               ; preds = %89, %86
  %98 = load ptr, ptr %9, align 8
  %99 = load i64, ptr %98, align 8
  %100 = icmp sle i64 -211813488000000000, %99
  br i1 %100, label %101, label %105

101:                                              ; preds = %97
  %102 = load ptr, ptr %9, align 8
  %103 = load i64, ptr %102, align 8
  %104 = icmp slt i64 %103, 9223371331200000000
  br i1 %104, label %106, label %105

105:                                              ; preds = %101, %97
  store i32 -1, ptr %5, align 4
  store i32 1, ptr %12, align 4
  br label %107

106:                                              ; preds = %101
  store i32 0, ptr %5, align 4
  store i32 1, ptr %12, align 4
  br label %107

107:                                              ; preds = %106, %105, %85, %42
  call void @llvm.lifetime.end.p0(i64 8, ptr %11) #11
  call void @llvm.lifetime.end.p0(i64 4, ptr %10) #11
  %108 = load i32, ptr %5, align 4
  ret i32 %108
}

; Function Attrs: nounwind uwtable
define i32 @PGTYPEStimestamp_add_interval(ptr noundef %0, ptr noundef %1, ptr noundef %2) #0 {
  %4 = alloca i32, align 4
  %5 = alloca ptr, align 8
  %6 = alloca ptr, align 8
  %7 = alloca ptr, align 8
  %8 = alloca %struct.tm, align 8
  %9 = alloca ptr, align 8
  %10 = alloca i32, align 4
  %11 = alloca i32, align 4
  store ptr %0, ptr %5, align 8
  store ptr %1, ptr %6, align 8
  store ptr %2, ptr %7, align 8
  %12 = load ptr, ptr %5, align 8
  %13 = load i64, ptr %12, align 8
  %14 = icmp eq i64 %13, -9223372036854775808
  br i1 %14, label %19, label %15

15:                                               ; preds = %3
  %16 = load ptr, ptr %5, align 8
  %17 = load i64, ptr %16, align 8
  %18 = icmp eq i64 %17, 9223372036854775807
  br i1 %18, label %19, label %23

19:                                               ; preds = %15, %3
  %20 = load ptr, ptr %5, align 8
  %21 = load i64, ptr %20, align 8
  %22 = load ptr, ptr %7, align 8
  store i64 %21, ptr %22, align 8
  br label %181

23:                                               ; preds = %15
  %24 = load ptr, ptr %6, align 8
  %25 = getelementptr inbounds nuw %struct.interval, ptr %24, i32 0, i32 1
  %26 = load i64, ptr %25, align 8
  %27 = icmp ne i64 %26, 0
  br i1 %27, label %28, label %171

28:                                               ; preds = %23
  call void @llvm.lifetime.start.p0(i64 56, ptr %8) #11
  call void @llvm.lifetime.start.p0(i64 8, ptr %9) #11
  store ptr %8, ptr %9, align 8
  call void @llvm.lifetime.start.p0(i64 4, ptr %10) #11
  %29 = load ptr, ptr %5, align 8
  %30 = load i64, ptr %29, align 8
  %31 = load ptr, ptr %9, align 8
  %32 = call i32 @timestamp2tm(i64 noundef %30, ptr noundef null, ptr noundef %31, ptr noundef %10, ptr noundef null)
  %33 = icmp ne i32 %32, 0
  br i1 %33, label %34, label %35

34:                                               ; preds = %28
  store i32 -1, ptr %4, align 4
  store i32 1, ptr %11, align 4
  br label %168

35:                                               ; preds = %28
  %36 = load ptr, ptr %6, align 8
  %37 = getelementptr inbounds nuw %struct.interval, ptr %36, i32 0, i32 1
  %38 = load i64, ptr %37, align 8
  %39 = load ptr, ptr %9, align 8
  %40 = getelementptr inbounds nuw %struct.tm, ptr %39, i32 0, i32 4
  %41 = load i32, ptr %40, align 8
  %42 = sext i32 %41 to i64
  %43 = add i64 %42, %38
  %44 = trunc i64 %43 to i32
  store i32 %44, ptr %40, align 8
  %45 = load ptr, ptr %9, align 8
  %46 = getelementptr inbounds nuw %struct.tm, ptr %45, i32 0, i32 4
  %47 = load i32, ptr %46, align 8
  %48 = icmp sgt i32 %47, 12
  br i1 %48, label %49, label %67

49:                                               ; preds = %35
  %50 = load ptr, ptr %9, align 8
  %51 = getelementptr inbounds nuw %struct.tm, ptr %50, i32 0, i32 4
  %52 = load i32, ptr %51, align 8
  %53 = sub i32 %52, 1
  %54 = sdiv i32 %53, 12
  %55 = load ptr, ptr %9, align 8
  %56 = getelementptr inbounds nuw %struct.tm, ptr %55, i32 0, i32 5
  %57 = load i32, ptr %56, align 4
  %58 = add i32 %57, %54
  store i32 %58, ptr %56, align 4
  %59 = load ptr, ptr %9, align 8
  %60 = getelementptr inbounds nuw %struct.tm, ptr %59, i32 0, i32 4
  %61 = load i32, ptr %60, align 8
  %62 = sub i32 %61, 1
  %63 = srem i32 %62, 12
  %64 = add i32 %63, 1
  %65 = load ptr, ptr %9, align 8
  %66 = getelementptr inbounds nuw %struct.tm, ptr %65, i32 0, i32 4
  store i32 %64, ptr %66, align 8
  br label %90

67:                                               ; preds = %35
  %68 = load ptr, ptr %9, align 8
  %69 = getelementptr inbounds nuw %struct.tm, ptr %68, i32 0, i32 4
  %70 = load i32, ptr %69, align 8
  %71 = icmp slt i32 %70, 1
  br i1 %71, label %72, label %89

72:                                               ; preds = %67
  %73 = load ptr, ptr %9, align 8
  %74 = getelementptr inbounds nuw %struct.tm, ptr %73, i32 0, i32 4
  %75 = load i32, ptr %74, align 8
  %76 = sdiv i32 %75, 12
  %77 = sub i32 %76, 1
  %78 = load ptr, ptr %9, align 8
  %79 = getelementptr inbounds nuw %struct.tm, ptr %78, i32 0, i32 5
  %80 = load i32, ptr %79, align 4
  %81 = add i32 %80, %77
  store i32 %81, ptr %79, align 4
  %82 = load ptr, ptr %9, align 8
  %83 = getelementptr inbounds nuw %struct.tm, ptr %82, i32 0, i32 4
  %84 = load i32, ptr %83, align 8
  %85 = srem i32 %84, 12
  %86 = add i32 %85, 12
  %87 = load ptr, ptr %9, align 8
  %88 = getelementptr inbounds nuw %struct.tm, ptr %87, i32 0, i32 4
  store i32 %86, ptr %88, align 8
  br label %89

89:                                               ; preds = %72, %67
  br label %90

90:                                               ; preds = %89, %49
  %91 = load ptr, ptr %9, align 8
  %92 = getelementptr inbounds nuw %struct.tm, ptr %91, i32 0, i32 3
  %93 = load i32, ptr %92, align 4
  %94 = load ptr, ptr %9, align 8
  %95 = getelementptr inbounds nuw %struct.tm, ptr %94, i32 0, i32 5
  %96 = load i32, ptr %95, align 4
  %97 = srem i32 %96, 4
  %98 = icmp eq i32 %97, 0
  br i1 %98, label %99, label %113

99:                                               ; preds = %90
  %100 = load ptr, ptr %9, align 8
  %101 = getelementptr inbounds nuw %struct.tm, ptr %100, i32 0, i32 5
  %102 = load i32, ptr %101, align 4
  %103 = srem i32 %102, 100
  %104 = icmp ne i32 %103, 0
  br i1 %104, label %111, label %105

105:                                              ; preds = %99
  %106 = load ptr, ptr %9, align 8
  %107 = getelementptr inbounds nuw %struct.tm, ptr %106, i32 0, i32 5
  %108 = load i32, ptr %107, align 4
  %109 = srem i32 %108, 400
  %110 = icmp eq i32 %109, 0
  br label %111

111:                                              ; preds = %105, %99
  %112 = phi i1 [ true, %99 ], [ %110, %105 ]
  br label %113

113:                                              ; preds = %111, %90
  %114 = phi i1 [ false, %90 ], [ %112, %111 ]
  %115 = zext i1 %114 to i32
  %116 = sext i32 %115 to i64
  %117 = getelementptr inbounds [2 x [13 x i32]], ptr @day_tab, i64 0, i64 %116
  %118 = load ptr, ptr %9, align 8
  %119 = getelementptr inbounds nuw %struct.tm, ptr %118, i32 0, i32 4
  %120 = load i32, ptr %119, align 8
  %121 = sub i32 %120, 1
  %122 = sext i32 %121 to i64
  %123 = getelementptr inbounds [13 x i32], ptr %117, i64 0, i64 %122
  %124 = load i32, ptr %123, align 4
  %125 = icmp sgt i32 %93, %124
  br i1 %125, label %126, label %160

126:                                              ; preds = %113
  %127 = load ptr, ptr %9, align 8
  %128 = getelementptr inbounds nuw %struct.tm, ptr %127, i32 0, i32 5
  %129 = load i32, ptr %128, align 4
  %130 = srem i32 %129, 4
  %131 = icmp eq i32 %130, 0
  br i1 %131, label %132, label %146

132:                                              ; preds = %126
  %133 = load ptr, ptr %9, align 8
  %134 = getelementptr inbounds nuw %struct.tm, ptr %133, i32 0, i32 5
  %135 = load i32, ptr %134, align 4
  %136 = srem i32 %135, 100
  %137 = icmp ne i32 %136, 0
  br i1 %137, label %144, label %138

138:                                              ; preds = %132
  %139 = load ptr, ptr %9, align 8
  %140 = getelementptr inbounds nuw %struct.tm, ptr %139, i32 0, i32 5
  %141 = load i32, ptr %140, align 4
  %142 = srem i32 %141, 400
  %143 = icmp eq i32 %142, 0
  br label %144

144:                                              ; preds = %138, %132
  %145 = phi i1 [ true, %132 ], [ %143, %138 ]
  br label %146

146:                                              ; preds = %144, %126
  %147 = phi i1 [ false, %126 ], [ %145, %144 ]
  %148 = zext i1 %147 to i32
  %149 = sext i32 %148 to i64
  %150 = getelementptr inbounds [2 x [13 x i32]], ptr @day_tab, i64 0, i64 %149
  %151 = load ptr, ptr %9, align 8
  %152 = getelementptr inbounds nuw %struct.tm, ptr %151, i32 0, i32 4
  %153 = load i32, ptr %152, align 8
  %154 = sub i32 %153, 1
  %155 = sext i32 %154 to i64
  %156 = getelementptr inbounds [13 x i32], ptr %150, i64 0, i64 %155
  %157 = load i32, ptr %156, align 4
  %158 = load ptr, ptr %9, align 8
  %159 = getelementptr inbounds nuw %struct.tm, ptr %158, i32 0, i32 3
  store i32 %157, ptr %159, align 4
  br label %160

160:                                              ; preds = %146, %113
  %161 = load ptr, ptr %9, align 8
  %162 = load i32, ptr %10, align 4
  %163 = load ptr, ptr %5, align 8
  %164 = call i32 @tm2timestamp(ptr noundef %161, i32 noundef %162, ptr noundef null, ptr noundef %163)
  %165 = icmp ne i32 %164, 0
  br i1 %165, label %166, label %167

166:                                              ; preds = %160
  store i32 -1, ptr %4, align 4
  store i32 1, ptr %11, align 4
  br label %168

167:                                              ; preds = %160
  store i32 0, ptr %11, align 4
  br label %168

168:                                              ; preds = %167, %166, %34
  call void @llvm.lifetime.end.p0(i64 4, ptr %10) #11
  call void @llvm.lifetime.end.p0(i64 8, ptr %9) #11
  call void @llvm.lifetime.end.p0(i64 56, ptr %8) #11
  %169 = load i32, ptr %11, align 4
  switch i32 %169, label %184 [
    i32 0, label %170
    i32 1, label %182
  ]

170:                                              ; preds = %168
  br label %171

171:                                              ; preds = %170, %23
  %172 = load ptr, ptr %6, align 8
  %173 = getelementptr inbounds nuw %struct.interval, ptr %172, i32 0, i32 0
  %174 = load i64, ptr %173, align 8
  %175 = load ptr, ptr %5, align 8
  %176 = load i64, ptr %175, align 8
  %177 = add i64 %176, %174
  store i64 %177, ptr %175, align 8
  %178 = load ptr, ptr %5, align 8
  %179 = load i64, ptr %178, align 8
  %180 = load ptr, ptr %7, align 8
  store i64 %179, ptr %180, align 8
  br label %181

181:                                              ; preds = %171, %19
  store i32 0, ptr %4, align 4
  br label %182

182:                                              ; preds = %181, %168
  %183 = load i32, ptr %4, align 4
  ret i32 %183

184:                                              ; preds = %168
  unreachable
}