; Function Attrs: nounwind uwtable
define range(i32 -1, 1) i32 @PGTYPEStimestamp_add_interval(ptr noundef captures(none) %0, ptr noundef readonly captures(none) %1, ptr noundef writeonly captures(none) %2) local_unnamed_addr #0 {
  %4 = alloca %struct.tm, align 8
  %5 = alloca i32, align 4
  %6 = load i64, ptr %0, align 8
  %.off = add i64 %6, -9223372036854775807
  %switch44 = icmp ult i64 %.off, 2
  br i1 %switch44, label %115, label %7

7:                                                ; preds = %3
  %8 = getelementptr inbounds nuw i8, ptr %1, i64 8
  %9 = load i64, ptr %8, align 8
  %.not = icmp eq i64 %9, 0
  br i1 %.not, label %111, label %10

10:                                               ; preds = %7
  call void @llvm.lifetime.start.p0(i64 56, ptr nonnull %4) #10
  call void @llvm.lifetime.start.p0(i64 4, ptr nonnull %5) #10
  %11 = call fastcc i32 @timestamp2tm(i64 noundef %6, ptr noundef %4, ptr noundef %5)
  %.not40 = icmp eq i32 %11, 0
  br i1 %.not40, label %12, label %.thread49

12:                                               ; preds = %10
  %13 = load i64, ptr %8, align 8
  %14 = getelementptr inbounds nuw i8, ptr %4, i64 16
  %15 = load i32, ptr %14, align 8
  %16 = trunc i64 %13 to i32
  %17 = add i32 %15, %16
  store i32 %17, ptr %14, align 8
  %18 = icmp sgt i32 %17, 12
  br i1 %18, label %19, label %27

19:                                               ; preds = %12
  %20 = add nsw i32 %17, -1
  %21 = udiv i32 %20, 12
  %22 = getelementptr inbounds nuw i8, ptr %4, i64 20
  %23 = load i32, ptr %22, align 4
  %24 = add i32 %23, %21
  store i32 %24, ptr %22, align 4
  %25 = urem i32 %20, 12
  %26 = add nuw nsw i32 %25, 1
  store i32 %26, ptr %14, align 8
  br label %37

27:                                               ; preds = %12
  %28 = icmp slt i32 %17, 1
  br i1 %28, label %29, label %._crit_edge

._crit_edge:                                      ; preds = %27
  %.phi.trans.insert = getelementptr inbounds nuw i8, ptr %4, i64 20
  %.pre = load i32, ptr %.phi.trans.insert, align 4
  br label %37

29:                                               ; preds = %27
  %.nonneg = sub i32 0, %17
  %30 = udiv i32 %.nonneg, 12
  %31 = xor i32 %30, -1
  %32 = getelementptr inbounds nuw i8, ptr %4, i64 20
  %33 = load i32, ptr %32, align 4
  %34 = add i32 %33, %31
  store i32 %34, ptr %32, align 4
  %35 = urem i32 %.nonneg, 12
  %36 = sub nuw nsw i32 12, %35
  store i32 %36, ptr %14, align 8
  br label %37

37:                                               ; preds = %._crit_edge, %29, %19
  %38 = phi i32 [ %17, %._crit_edge ], [ %36, %29 ], [ %26, %19 ]
  %39 = phi i32 [ %.pre, %._crit_edge ], [ %34, %29 ], [ %24, %19 ]
  %40 = getelementptr inbounds nuw i8, ptr %4, i64 12
  %41 = load i32, ptr %40, align 4
  %42 = and i32 %39, 3
  %43 = icmp eq i32 %42, 0
  br i1 %43, label %44, label %.thread

44:                                               ; preds = %37
  %45 = srem i32 %39, 100
  %.not41 = icmp eq i32 %45, 0
  br i1 %.not41, label %46, label %.thread58

46:                                               ; preds = %44
  %47 = srem i32 %39, 400
  %48 = icmp eq i32 %47, 0
  %49 = zext i1 %48 to i64
  %50 = add nsw i32 %38, -1
  %51 = zext nneg i32 %50 to i64
  %52 = getelementptr inbounds nuw [2 x [13 x i32]], ptr @day_tab, i64 0, i64 %49, i64 %51
  %53 = load i32, ptr %52, align 4
  %54 = icmp sgt i32 %41, %53
  br i1 %54, label %65, label %73

.thread58:                                        ; preds = %44
  %55 = add nsw i32 %38, -1
  %56 = zext nneg i32 %55 to i64
  %57 = getelementptr inbounds nuw [2 x [13 x i32]], ptr @day_tab, i64 0, i64 1, i64 %56
  %58 = load i32, ptr %57, align 4
  %59 = icmp sgt i32 %41, %58
  br i1 %59, label %.thread45, label %73

.thread:                                          ; preds = %37
  %60 = add nsw i32 %38, -1
  %61 = zext nneg i32 %60 to i64
  %62 = getelementptr inbounds nuw [2 x [13 x i32]], ptr @day_tab, i64 0, i64 0, i64 %61
  %63 = load i32, ptr %62, align 4
  %64 = icmp sgt i32 %41, %63
  br i1 %64, label %.thread45, label %73

65:                                               ; preds = %46
  %66 = srem i32 %39, 400
  %67 = icmp eq i32 %66, 0
  %68 = zext i1 %67 to i64
  br label %.thread45

.thread45:                                        ; preds = %.thread58, %.thread, %65
  %69 = phi i64 [ %51, %65 ], [ %61, %.thread ], [ %56, %.thread58 ]
  %70 = phi i64 [ %68, %65 ], [ 0, %.thread ], [ 1, %.thread58 ]
  %71 = getelementptr inbounds nuw [2 x [13 x i32]], ptr @day_tab, i64 0, i64 %70, i64 %69
  %72 = load i32, ptr %71, align 4
  store i32 %72, ptr %40, align 4
  br label %73

73:                                               ; preds = %.thread58, %.thread, %.thread45, %46
  %74 = phi i32 [ %41, %.thread ], [ %72, %.thread45 ], [ %41, %46 ], [ %41, %.thread58 ]
  %75 = load i32, ptr %5, align 4
  %76 = icmp sgt i32 %39, -4713
  br i1 %76, label %80, label %77

77:                                               ; preds = %73
  %78 = icmp eq i32 %39, -4713
  %79 = icmp samesign ugt i32 %38, 10
  %or.cond = and i1 %78, %79
  br i1 %or.cond, label %.thread.i, label %.thread49

80:                                               ; preds = %73
  %81 = icmp slt i32 %39, 5874898
  br i1 %81, label %.thread.i, label %82

82:                                               ; preds = %80
  %83 = icmp eq i32 %39, 5874898
  %84 = icmp samesign ult i32 %38, 6
  %or.cond54 = and i1 %83, %84
  br i1 %or.cond54, label %.thread.i, label %.thread49

.thread.i:                                        ; preds = %82, %77, %80
  %85 = call i32 @date2j(i32 noundef %39, i32 noundef %38, i32 noundef %74) #10
  %86 = call i32 @date2j(i32 noundef 2000, i32 noundef 1, i32 noundef 1) #10
  %87 = sub i32 %85, %86
  %88 = getelementptr inbounds nuw i8, ptr %4, i64 8
  %89 = load i32, ptr %88, align 8
  %90 = getelementptr inbounds nuw i8, ptr %4, i64 4
  %91 = load i32, ptr %90, align 4
  %92 = load i32, ptr %4, align 8
  %93 = sext i32 %87 to i64
  %94 = call { i64, i1 } @llvm.smul.with.overflow.i64(i64 range(i64 -2147483648, 2147483648) %93, i64 86400000000)
  %95 = extractvalue { i64, i1 } %94, 1
  %96 = extractvalue { i64, i1 } %94, 0
  store i64 %96, ptr %0, align 8
  br i1 %95, label %.thread49, label %97

97:                                               ; preds = %.thread.i
  %98 = mul i32 %89, 60
  %99 = add i32 %98, %91
  %100 = mul i32 %99, 60
  %101 = add i32 %100, %92
  %102 = sext i32 %101 to i64
  %103 = mul nsw i64 %102, 1000000
  %104 = sext i32 %75 to i64
  %105 = add nsw i64 %103, %104
  %106 = call { i64, i1 } @llvm.sadd.with.overflow.i64(i64 %96, i64 range(i64 -2147485795483648, 2147485794483648) %105)
  %.fr = freeze { i64, i1 } %106
  %107 = extractvalue { i64, i1 } %.fr, 1
  %108 = extractvalue { i64, i1 } %.fr, 0
  store i64 %108, ptr %0, align 8
  %109 = add i64 %108, -9223371331200000000
  %or.cond.i = icmp ult i64 %109, 9011559254509551616
  %or.cond57.not = or i1 %or.cond.i, %107
  br i1 %or.cond57.not, label %.thread49, label %110, !prof !16

.thread49:                                        ; preds = %10, %82, %77, %97, %.thread.i
  call void @llvm.lifetime.end.p0(i64 4, ptr nonnull %5) #10
  call void @llvm.lifetime.end.p0(i64 56, ptr nonnull %4) #10
  br label %116

110:                                              ; preds = %97
  call void @llvm.lifetime.end.p0(i64 4, ptr nonnull %5) #10
  call void @llvm.lifetime.end.p0(i64 56, ptr nonnull %4) #10
  br label %111

111:                                              ; preds = %110, %7
  %112 = phi i64 [ %108, %110 ], [ %6, %7 ]
  %113 = load i64, ptr %1, align 8
  %114 = add i64 %112, %113
  store i64 %114, ptr %0, align 8
  br label %115

115:                                              ; preds = %3, %111
  %storemerge = phi i64 [ %114, %111 ], [ %6, %3 ]
  store i64 %storemerge, ptr %2, align 8
  br label %116

116:                                              ; preds = %.thread49, %115
  %.1 = phi i32 [ 0, %115 ], [ -1, %.thread49 ]
  ret i32 %.1
}